target datalayout = "e-m:e-p270:32:32-p271:32:32-p272:64:64-i64:64-f80:128-n8:16:32:64-S128"
target triple = "x86_64-pc-linux-gnu"

@.str = private unnamed_addr constant [3 x i8] c"%c\00", align 1
@.str.1 = private unnamed_addr constant [2 x i8] c"\0A\00", align 1

; Function Attrs: noinline nounwind uwtable
define dso_local i32 @main() #0 {
  %1 = alloca i32, align 4
  %2 = alloca [200 x i32], align 16
  %3 = alloca [2000 x i8], align 16
  %4 = alloca [200 x i32], align 16
  %5 = alloca i32, align 4
  %6 = alloca i32, align 4
  %7 = alloca i32, align 4
  %8 = alloca i32, align 4
  %9 = alloca i32, align 4
  %10 = alloca i32, align 4
  %11 = alloca i32, align 4
  %12 = alloca i32, align 4
  store i32 0, i32* %1, align 4
  store i32 1, i32* %8, align 4
  store i32 0, i32* %10, align 4
  %13 = getelementptr inbounds [2000 x i8], [2000 x i8]* %3, i64 0, i64 0
  %14 = call i32 (i8*, ...) bitcast (i32 (...)* @gets to i32 (i8*, ...)*)(i8* %13)
  %15 = getelementptr inbounds [2000 x i8], [2000 x i8]* %3, i64 0, i64 0
  %16 = call i64 @strlen(i8* %15) #3
  %17 = trunc i64 %16 to i32
  store i32 %17, i32* %5, align 4
  store i32 0, i32* %6, align 4
  br label %18

18:                                               ; preds = %44, %0
  %19 = load i32, i32* %6, align 4
  %20 = load i32, i32* %5, align 4
  %21 = icmp slt i32 %19, %20
  br i1 %21, label %22, label %47

22:                                               ; preds = %18
  %23 = load i32, i32* %6, align 4
  %24 = sext i32 %23 to i64
  %25 = getelementptr inbounds [2000 x i8], [2000 x i8]* %3, i64 0, i64 %24
  %26 = load i8, i8* %25, align 1
  %27 = sext i8 %26 to i32
  %28 = icmp eq i32 %27, 32
  br i1 %28, label %36, label %29

29:                                               ; preds = %22
  %30 = load i32, i32* %6, align 4
  %31 = sext i32 %30 to i64
  %32 = getelementptr inbounds [2000 x i8], [2000 x i8]* %3, i64 0, i64 %31
  %33 = load i8, i8* %32, align 1
  %34 = sext i8 %33 to i32
  %35 = icmp eq i32 %34, 44
  br i1 %35, label %36, label %43

36:                                               ; preds = %29, %22
  %37 = load i32, i32* %6, align 4
  %38 = load i32, i32* %8, align 4
  %39 = sext i32 %38 to i64
  %40 = getelementptr inbounds [200 x i32], [200 x i32]* %4, i64 0, i64 %39
  store i32 %37, i32* %40, align 4
  %41 = load i32, i32* %8, align 4
  %42 = add nsw i32 %41, 1
  store i32 %42, i32* %8, align 4
  br label %43

43:                                               ; preds = %36, %29
  br label %44

44:                                               ; preds = %43
  %45 = load i32, i32* %6, align 4
  %46 = add nsw i32 %45, 1
  store i32 %46, i32* %6, align 4
  br label %18

47:                                               ; preds = %18
  %48 = load i32, i32* %8, align 4
  store i32 %48, i32* %9, align 4
  %49 = getelementptr inbounds [200 x i32], [200 x i32]* %4, i64 0, i64 0
  store i32 -1, i32* %49, align 16
  %50 = load i32, i32* %5, align 4
  %51 = load i32, i32* %9, align 4
  %52 = sext i32 %51 to i64
  %53 = getelementptr inbounds [200 x i32], [200 x i32]* %4, i64 0, i64 %52
  store i32 %50, i32* %53, align 4
  store i32 0, i32* %8, align 4
  br label %54

54:                                               ; preds = %83, %47
  %55 = load i32, i32* %8, align 4
  %56 = load i32, i32* %9, align 4
  %57 = icmp slt i32 %55, %56
  br i1 %57, label %58, label %86

58:                                               ; preds = %54
  %59 = load i32, i32* %8, align 4
  %60 = add nsw i32 %59, 1
  %61 = sext i32 %60 to i64
  %62 = getelementptr inbounds [200 x i32], [200 x i32]* %4, i64 0, i64 %61
  %63 = load i32, i32* %62, align 4
  %64 = load i32, i32* %8, align 4
  %65 = sext i32 %64 to i64
  %66 = getelementptr inbounds [200 x i32], [200 x i32]* %4, i64 0, i64 %65
  %67 = load i32, i32* %66, align 4
  %68 = sub nsw i32 %63, %67
  %69 = sub nsw i32 %68, 1
  %70 = load i32, i32* %8, align 4
  %71 = sext i32 %70 to i64
  %72 = getelementptr inbounds [200 x i32], [200 x i32]* %2, i64 0, i64 %71
  store i32 %69, i32* %72, align 4
  %73 = load i32, i32* %8, align 4
  %74 = sext i32 %73 to i64
  %75 = getelementptr inbounds [200 x i32], [200 x i32]* %2, i64 0, i64 %74
  %76 = load i32, i32* %75, align 4
  %77 = icmp eq i32 %76, 0
  br i1 %77, label %78, label %82

78:                                               ; preds = %58
  %79 = load i32, i32* %8, align 4
  %80 = sext i32 %79 to i64
  %81 = getelementptr inbounds [200 x i32], [200 x i32]* %2, i64 0, i64 %80
  store i32 10, i32* %81, align 4
  br label %82

82:                                               ; preds = %78, %58
  br label %83

83:                                               ; preds = %82
  %84 = load i32, i32* %8, align 4
  %85 = add nsw i32 %84, 1
  store i32 %85, i32* %8, align 4
  br label %54

86:                                               ; preds = %54
  store i32 0, i32* %7, align 4
  br label %87

87:                                               ; preds = %105, %86
  %88 = load i32, i32* %7, align 4
  %89 = load i32, i32* %9, align 4
  %90 = icmp slt i32 %88, %89
  br i1 %90, label %91, label %108

91:                                               ; preds = %87
  %92 = load i32, i32* %10, align 4
  %93 = load i32, i32* %7, align 4
  %94 = sext i32 %93 to i64
  %95 = getelementptr inbounds [200 x i32], [200 x i32]* %2, i64 0, i64 %94
  %96 = load i32, i32* %95, align 4
  %97 = icmp slt i32 %92, %96
  br i1 %97, label %98, label %104

98:                                               ; preds = %91
  %99 = load i32, i32* %7, align 4
  %100 = sext i32 %99 to i64
  %101 = getelementptr inbounds [200 x i32], [200 x i32]* %2, i64 0, i64 %100
  %102 = load i32, i32* %101, align 4
  store i32 %102, i32* %10, align 4
  %103 = load i32, i32* %7, align 4
  store i32 %103, i32* %11, align 4
  br label %104

104:                                              ; preds = %98, %91
  br label %105

105:                                              ; preds = %104
  %106 = load i32, i32* %7, align 4
  %107 = add nsw i32 %106, 1
  store i32 %107, i32* %7, align 4
  br label %87

108:                                              ; preds = %87
  store i32 10, i32* %10, align 4
  store i32 0, i32* %7, align 4
  br label %109

109:                                              ; preds = %127, %108
  %110 = load i32, i32* %7, align 4
  %111 = load i32, i32* %9, align 4
  %112 = icmp slt i32 %110, %111
  br i1 %112, label %113, label %130

113:                                              ; preds = %109
  %114 = load i32, i32* %10, align 4
  %115 = load i32, i32* %7, align 4
  %116 = sext i32 %115 to i64
  %117 = getelementptr inbounds [200 x i32], [200 x i32]* %2, i64 0, i64 %116
  %118 = load i32, i32* %117, align 4
  %119 = icmp sgt i32 %114, %118
  br i1 %119, label %120, label %126

120:                                              ; preds = %113
  %121 = load i32, i32* %7, align 4
  %122 = sext i32 %121 to i64
  %123 = getelementptr inbounds [200 x i32], [200 x i32]* %2, i64 0, i64 %122
  %124 = load i32, i32* %123, align 4
  store i32 %124, i32* %10, align 4
  %125 = load i32, i32* %7, align 4
  store i32 %125, i32* %12, align 4
  br label %126

126:                                              ; preds = %120, %113
  br label %127

127:                                              ; preds = %126
  %128 = load i32, i32* %7, align 4
  %129 = add nsw i32 %128, 1
  store i32 %129, i32* %7, align 4
  br label %109

130:                                              ; preds = %109
  %131 = load i32, i32* %11, align 4
  %132 = sext i32 %131 to i64
  %133 = getelementptr inbounds [200 x i32], [200 x i32]* %4, i64 0, i64 %132
  %134 = load i32, i32* %133, align 4
  %135 = add nsw i32 %134, 1
  store i32 %135, i32* %6, align 4
  br label %136

136:                                              ; preds = %151, %130
  %137 = load i32, i32* %6, align 4
  %138 = load i32, i32* %11, align 4
  %139 = add nsw i32 %138, 1
  %140 = sext i32 %139 to i64
  %141 = getelementptr inbounds [200 x i32], [200 x i32]* %4, i64 0, i64 %140
  %142 = load i32, i32* %141, align 4
  %143 = icmp slt i32 %137, %142
  br i1 %143, label %144, label %154

144:                                              ; preds = %136
  %145 = load i32, i32* %6, align 4
  %146 = sext i32 %145 to i64
  %147 = getelementptr inbounds [2000 x i8], [2000 x i8]* %3, i64 0, i64 %146
  %148 = load i8, i8* %147, align 1
  %149 = sext i8 %148 to i32
  %150 = call i32 (i8*, ...) @printf(i8* getelementptr inbounds ([3 x i8], [3 x i8]* @.str, i64 0, i64 0), i32 %149)
  br label %151

151:                                              ; preds = %144
  %152 = load i32, i32* %6, align 4
  %153 = add nsw i32 %152, 1
  store i32 %153, i32* %6, align 4
  br label %136

154:                                              ; preds = %136
  %155 = call i32 (i8*, ...) @printf(i8* getelementptr inbounds ([2 x i8], [2 x i8]* @.str.1, i64 0, i64 0))
  %156 = load i32, i32* %12, align 4
  %157 = sext i32 %156 to i64
  %158 = getelementptr inbounds [200 x i32], [200 x i32]* %4, i64 0, i64 %157
  %159 = load i32, i32* %158, align 4
  %160 = add nsw i32 %159, 1
  store i32 %160, i32* %6, align 4
  br label %161

161:                                              ; preds = %176, %154
  %162 = load i32, i32* %6, align 4
  %163 = load i32, i32* %12, align 4
  %164 = add nsw i32 %163, 1
  %165 = sext i32 %164 to i64
  %166 = getelementptr inbounds [200 x i32], [200 x i32]* %4, i64 0, i64 %165
  %167 = load i32, i32* %166, align 4
  %168 = icmp slt i32 %162, %167
  br i1 %168, label %169, label %179

169:                                              ; preds = %161
  %170 = load i32, i32* %6, align 4
  %171 = sext i32 %170 to i64
  %172 = getelementptr inbounds [2000 x i8], [2000 x i8]* %3, i64 0, i64 %171
  %173 = load i8, i8* %172, align 1
  %174 = sext i8 %173 to i32
  %175 = call i32 (i8*, ...) @printf(i8* getelementptr inbounds ([3 x i8], [3 x i8]* @.str, i64 0, i64 0), i32 %174)
  br label %176

176:                                              ; preds = %169
  %177 = load i32, i32* %6, align 4
  %178 = add nsw i32 %177, 1
  store i32 %178, i32* %6, align 4
  br label %161

179:                                              ; preds = %161
  %180 = call i32 (i8*, ...) @printf(i8* getelementptr inbounds ([2 x i8], [2 x i8]* @.str.1, i64 0, i64 0))
  ret i32 0
}